target datalayout = "e-m:e-p270:32:32-p271:32:32-p272:64:64-i64:64-i128:128-f80:128-n8:16:32:64-S128"
target triple = "x86_64-pc-linux-gnu"

%struct.lua_State = type { i8, i8, i8, i8, i8, i8, i8, ptr, ptr, ptr, ptr, ptr, ptr, ptr, ptr, i32, i32, i16, i16, i32, ptr, ptr, ptr, ptr, ptr }
%struct.lua_TValue = type { %union.Value, [1 x i32], i32 }
%union.Value = type { ptr }
%struct.LuaTable = type { i8, i8, i8, i8, i8, i8, i8, i8, i32, %union.anon.2, ptr, ptr, ptr, ptr }
%union.anon.2 = type { i32 }
%struct.LuaNode = type { %struct.lua_TValue, %struct.TKey }
%struct.TKey = type { %union.Value, [1 x i32], i32 }

; Function Attrs: mustprogress uwtable
define internal noundef i32 @_ZL4maxnP9lua_State(ptr noundef %0) #0 {
  %2 = alloca ptr, align 8
  %3 = alloca double, align 8
  %4 = alloca ptr, align 8
  %5 = alloca i32, align 4
  %6 = alloca i32, align 4
  %7 = alloca ptr, align 8
  %8 = alloca double, align 8
  store ptr %0, ptr %2, align 8, !tbaa !4
  call void @llvm.lifetime.start.p0(i64 8, ptr %3) #7
  store double 0.000000e+00, ptr %3, align 8, !tbaa !41
  %9 = load ptr, ptr %2, align 8, !tbaa !4
  call void @_Z14luaL_checktypeP9lua_Stateii(ptr noundef %9, i32 noundef 1, i32 noundef 6)
  call void @llvm.lifetime.start.p0(i64 8, ptr %4) #7
  %10 = load ptr, ptr %2, align 8, !tbaa !4
  %11 = getelementptr inbounds nuw %struct.lua_State, ptr %10, i32 0, i32 8
  %12 = load ptr, ptr %11, align 8, !tbaa !9
  %13 = getelementptr inbounds nuw %struct.lua_TValue, ptr %12, i32 0, i32 0
  %14 = load ptr, ptr %13, align 8, !tbaa !21
  store ptr %14, ptr %4, align 8, !tbaa !22
  call void @llvm.lifetime.start.p0(i64 4, ptr %5) #7
  store i32 0, ptr %5, align 4, !tbaa !23
  br label %15

15:                                               ; preds = %37, %1
  %16 = load i32, ptr %5, align 4, !tbaa !23
  %17 = load ptr, ptr %4, align 8, !tbaa !22
  %18 = getelementptr inbounds nuw %struct.LuaTable, ptr %17, i32 0, i32 8
  %19 = load i32, ptr %18, align 8, !tbaa !24
  %20 = icmp slt i32 %16, %19
  br i1 %20, label %22, label %21

21:                                               ; preds = %15
  call void @llvm.lifetime.end.p0(i64 4, ptr %5) #7
  br label %40

22:                                               ; preds = %15
  %23 = load ptr, ptr %4, align 8, !tbaa !22
  %24 = getelementptr inbounds nuw %struct.LuaTable, ptr %23, i32 0, i32 11
  %25 = load ptr, ptr %24, align 8, !tbaa !27
  %26 = load i32, ptr %5, align 4, !tbaa !23
  %27 = sext i32 %26 to i64
  %28 = getelementptr inbounds %struct.lua_TValue, ptr %25, i64 %27
  %29 = getelementptr inbounds nuw %struct.lua_TValue, ptr %28, i32 0, i32 2
  %30 = load i32, ptr %29, align 4, !tbaa !43
  %31 = icmp eq i32 %30, 0
  br i1 %31, label %36, label %32

32:                                               ; preds = %22
  %33 = load i32, ptr %5, align 4, !tbaa !23
  %34 = add nsw i32 %33, 1
  %35 = sitofp i32 %34 to double
  store double %35, ptr %3, align 8, !tbaa !41
  br label %36

36:                                               ; preds = %32, %22
  br label %37

37:                                               ; preds = %36
  %38 = load i32, ptr %5, align 4, !tbaa !23
  %39 = add nsw i32 %38, 1
  store i32 %39, ptr %5, align 4, !tbaa !23
  br label %15, !llvm.loop !45

40:                                               ; preds = %21
  call void @llvm.lifetime.start.p0(i64 4, ptr %6) #7
  store i32 0, ptr %6, align 4, !tbaa !23
  br label %41

41:                                               ; preds = %81, %40
  %42 = load i32, ptr %6, align 4, !tbaa !23
  %43 = load ptr, ptr %4, align 8, !tbaa !22
  %44 = getelementptr inbounds nuw %struct.LuaTable, ptr %43, i32 0, i32 6
  %45 = load i8, ptr %44, align 2, !tbaa !46
  %46 = zext i8 %45 to i32
  %47 = shl i32 1, %46
  %48 = icmp slt i32 %42, %47
  br i1 %48, label %50, label %49

49:                                               ; preds = %41
  call void @llvm.lifetime.end.p0(i64 4, ptr %6) #7
  br label %84

50:                                               ; preds = %41
  call void @llvm.lifetime.start.p0(i64 8, ptr %7) #7
  %51 = load ptr, ptr %4, align 8, !tbaa !22
  %52 = getelementptr inbounds nuw %struct.LuaTable, ptr %51, i32 0, i32 12
  %53 = load ptr, ptr %52, align 8, !tbaa !47
  %54 = load i32, ptr %6, align 4, !tbaa !23
  %55 = sext i32 %54 to i64
  %56 = getelementptr inbounds %struct.LuaNode, ptr %53, i64 %55
  store ptr %56, ptr %7, align 8, !tbaa !48
  %57 = load ptr, ptr %7, align 8, !tbaa !48
  %58 = getelementptr inbounds nuw %struct.LuaNode, ptr %57, i32 0, i32 0
  %59 = getelementptr inbounds nuw %struct.lua_TValue, ptr %58, i32 0, i32 2
  %60 = load i32, ptr %59, align 4, !tbaa !49
  %61 = icmp eq i32 %60, 0
  br i1 %61, label %80, label %62

62:                                               ; preds = %50
  %63 = load ptr, ptr %7, align 8, !tbaa !48
  %64 = getelementptr inbounds nuw %struct.LuaNode, ptr %63, i32 0, i32 1
  %65 = getelementptr inbounds nuw %struct.TKey, ptr %64, i32 0, i32 2
  %66 = load i32, ptr %65, align 4
  %67 = and i32 %66, 15
  %68 = icmp eq i32 %67, 3
  br i1 %68, label %69, label %80

69:                                               ; preds = %62
  call void @llvm.lifetime.start.p0(i64 8, ptr %8) #7
  %70 = load ptr, ptr %7, align 8, !tbaa !48
  %71 = getelementptr inbounds nuw %struct.LuaNode, ptr %70, i32 0, i32 1
  %72 = getelementptr inbounds nuw %struct.TKey, ptr %71, i32 0, i32 0
  %73 = load double, ptr %72, align 8, !tbaa !21
  store double %73, ptr %8, align 8, !tbaa !41
  %74 = load double, ptr %8, align 8, !tbaa !41
  %75 = load double, ptr %3, align 8, !tbaa !41
  %76 = fcmp ogt double %74, %75
  br i1 %76, label %77, label %79

77:                                               ; preds = %69
  %78 = load double, ptr %8, align 8, !tbaa !41
  store double %78, ptr %3, align 8, !tbaa !41
  br label %79

79:                                               ; preds = %77, %69
  call void @llvm.lifetime.end.p0(i64 8, ptr %8) #7
  br label %80

80:                                               ; preds = %79, %62, %50
  call void @llvm.lifetime.end.p0(i64 8, ptr %7) #7
  br label %81

81:                                               ; preds = %80
  %82 = load i32, ptr %6, align 4, !tbaa !23
  %83 = add nsw i32 %82, 1
  store i32 %83, ptr %6, align 4, !tbaa !23
  br label %41, !llvm.loop !52

84:                                               ; preds = %49
  %85 = load ptr, ptr %2, align 8, !tbaa !4
  %86 = load double, ptr %3, align 8, !tbaa !41
  call void @_Z14lua_pushnumberP9lua_Stated(ptr noundef %85, double noundef %86)
  call void @llvm.lifetime.end.p0(i64 8, ptr %4) #7
  call void @llvm.lifetime.end.p0(i64 8, ptr %3) #7
  ret i32 1
}