; Function Attrs: mustprogress uwtable
define internal noundef i32 @_ZL4maxnP9lua_State(ptr noundef %0) #0 {
  tail call void @_Z14luaL_checktypeP9lua_Stateii(ptr noundef %0, i32 noundef 1, i32 noundef 6)
  %2 = getelementptr inbounds nuw i8, ptr %0, i64 16
  %3 = load ptr, ptr %2, align 8, !tbaa !4
  %4 = load ptr, ptr %3, align 8, !tbaa !19
  %5 = getelementptr inbounds nuw i8, ptr %4, i64 8
  %6 = load i32, ptr %5, align 8, !tbaa !20
  %7 = icmp sgt i32 %6, 0
  br i1 %7, label %.lr.ph, label %.preheader

.lr.ph:                                           ; preds = %1
  %8 = getelementptr inbounds nuw i8, ptr %4, i64 24
  %9 = load ptr, ptr %8, align 8, !tbaa !23
  %wide.trip.count = zext nneg i32 %6 to i64
  br label %16

.preheader:                                       ; preds = %16, %1
  %.0.lcssa = phi double [ 0.000000e+00, %1 ], [ %.1, %16 ]
  %10 = getelementptr inbounds nuw i8, ptr %4, i64 6
  %11 = load i8, ptr %10, align 2, !tbaa !35
  %.not = icmp eq i8 %11, 31
  br i1 %.not, label %._crit_edge, label %.lr.ph27

.lr.ph27:                                         ; preds = %.preheader
  %12 = zext nneg i8 %11 to i32
  %13 = shl nuw i32 1, %12
  %14 = getelementptr inbounds nuw i8, ptr %4, i64 32
  %15 = load ptr, ptr %14, align 8, !tbaa !36
  %smax = tail call i32 @llvm.smax.i32(i32 %13, i32 1)
  %wide.trip.count33 = zext nneg i32 %smax to i64
  br label %22

16:                                               ; preds = %.lr.ph, %16
  %indvars.iv = phi i64 [ 0, %.lr.ph ], [ %indvars.iv.next, %16 ]
  %.024 = phi double [ 0.000000e+00, %.lr.ph ], [ %.1, %16 ]
  %17 = getelementptr inbounds nuw %struct.lua_TValue, ptr %9, i64 %indvars.iv, i32 2
  %18 = load i32, ptr %17, align 4, !tbaa !37
  %19 = icmp eq i32 %18, 0
  %indvars.iv.next = add nuw nsw i64 %indvars.iv, 1
  %20 = trunc nuw nsw i64 %indvars.iv.next to i32
  %21 = uitofp nneg i32 %20 to double
  %.1 = select i1 %19, double %.024, double %21
  %exitcond.not = icmp eq i64 %indvars.iv.next, %wide.trip.count
  br i1 %exitcond.not, label %.preheader, label %16, !llvm.loop !39

._crit_edge:                                      ; preds = %36, %.preheader
  %.2.lcssa = phi double [ %.0.lcssa, %.preheader ], [ %.3, %36 ]
  tail call void @_Z14lua_pushnumberP9lua_Stated(ptr noundef %0, double noundef %.2.lcssa)
  ret i32 1

22:                                               ; preds = %.lr.ph27, %36
  %indvars.iv30 = phi i64 [ 0, %.lr.ph27 ], [ %indvars.iv.next31, %36 ]
  %.226 = phi double [ %.0.lcssa, %.lr.ph27 ], [ %.3, %36 ]
  %23 = getelementptr inbounds nuw %struct.LuaNode, ptr %15, i64 %indvars.iv30
  %24 = getelementptr inbounds nuw i8, ptr %23, i64 12
  %25 = load i32, ptr %24, align 4, !tbaa !40
  %26 = icmp eq i32 %25, 0
  br i1 %26, label %36, label %27

27:                                               ; preds = %22
  %28 = getelementptr inbounds nuw i8, ptr %23, i64 28
  %29 = load i32, ptr %28, align 4
  %30 = and i32 %29, 15
  %31 = icmp eq i32 %30, 3
  br i1 %31, label %32, label %36

32:                                               ; preds = %27
  %33 = getelementptr inbounds nuw i8, ptr %23, i64 16
  %34 = load double, ptr %33, align 8, !tbaa !19
  %35 = fcmp ogt double %34, %.226
  %.4 = select i1 %35, double %34, double %.226
  br label %36

36:                                               ; preds = %32, %27, %22
  %.3 = phi double [ %.226, %22 ], [ %.4, %32 ], [ %.226, %27 ]
  %indvars.iv.next31 = add nuw nsw i64 %indvars.iv30, 1
  %exitcond34.not = icmp eq i64 %indvars.iv.next31, %wide.trip.count33
  br i1 %exitcond34.not, label %._crit_edge, label %22, !llvm.loop !43
}